; Function Attrs: mustprogress uwtable
define hidden noundef zeroext i1 @_ZN2cv16BaseImageEncoder5writeERKNS_3MatERKSt6vectorIiSaIiEE(ptr noundef nonnull align 8 dereferenceable(120) %0, ptr noundef nonnull align 8 dereferenceable(96) %1, ptr noundef nonnull align 8 dereferenceable(24) %2) unnamed_addr #3 align 2 personality ptr @__gxx_personality_v0 {
  %4 = alloca %"class.std::vector.11", align 8
  %5 = alloca %"class.std::allocator.13", align 1
  call void @llvm.lifetime.start.p0(i64 24, ptr nonnull %4) #25
  call void @llvm.lifetime.start.p0(i64 1, ptr nonnull %5) #25
  call void @_ZNSt6vectorIN2cv3MatESaIS1_EEC2EmRKS1_RKS2_(ptr noundef nonnull align 8 dereferenceable(24) %4, i64 noundef 1, ptr noundef nonnull align 8 dereferenceable(96) %1, ptr noundef nonnull align 1 dereferenceable(1) %5)
  call void @llvm.lifetime.end.p0(i64 1, ptr nonnull %5) #25
  %6 = load ptr, ptr %0, align 8, !tbaa !3
  %7 = getelementptr inbounds nuw i8, ptr %6, i64 48
  %8 = load ptr, ptr %7, align 8
  %9 = invoke noundef zeroext i1 %8(ptr noundef nonnull align 8 dereferenceable(120) %0, ptr noundef nonnull align 8 dereferenceable(24) %4, ptr noundef nonnull align 8 dereferenceable(24) %2)
          to label %10 unwind label %17

10:                                               ; preds = %3
  %11 = load ptr, ptr %4, align 8, !tbaa !72
  %12 = getelementptr inbounds nuw i8, ptr %4, i64 8
  %13 = load ptr, ptr %12, align 8, !tbaa !73
  %.not4.i.i.i.i = icmp eq ptr %11, %13
  br i1 %.not4.i.i.i.i, label %_ZSt8_DestroyIPN2cv3MatES1_EvT_S3_RSaIT0_E.exit.i, label %.lr.ph.i.i.i.i

.lr.ph.i.i.i.i:                                   ; preds = %10, %.lr.ph.i.i.i.i
  %.05.i.i.i.i = phi ptr [ %14, %.lr.ph.i.i.i.i ], [ %11, %10 ]
  call void @_ZN2cv3MatD1Ev(ptr noundef nonnull align 8 dereferenceable(96) %.05.i.i.i.i) #25
  %14 = getelementptr inbounds nuw i8, ptr %.05.i.i.i.i, i64 96
  %.not.i.i.i.i = icmp eq ptr %14, %13
  br i1 %.not.i.i.i.i, label %_ZSt8_DestroyIPN2cv3MatES1_EvT_S3_RSaIT0_E.exitthread-pre-split.i, label %.lr.ph.i.i.i.i, !llvm.loop !74

_ZSt8_DestroyIPN2cv3MatES1_EvT_S3_RSaIT0_E.exitthread-pre-split.i: ; preds = %.lr.ph.i.i.i.i
  %.pr.i = load ptr, ptr %4, align 8, !tbaa !72
  br label %_ZSt8_DestroyIPN2cv3MatES1_EvT_S3_RSaIT0_E.exit.i

_ZSt8_DestroyIPN2cv3MatES1_EvT_S3_RSaIT0_E.exit.i: ; preds = %_ZSt8_DestroyIPN2cv3MatES1_EvT_S3_RSaIT0_E.exitthread-pre-split.i, %10
  %15 = phi ptr [ %.pr.i, %_ZSt8_DestroyIPN2cv3MatES1_EvT_S3_RSaIT0_E.exitthread-pre-split.i ], [ %11, %10 ]
  %.not.i.i.i = icmp eq ptr %15, null
  br i1 %.not.i.i.i, label %_ZNSt6vectorIN2cv3MatESaIS1_EED2Ev.exit, label %16

16:                                               ; preds = %_ZSt8_DestroyIPN2cv3MatES1_EvT_S3_RSaIT0_E.exit.i
  call void @_ZdlPv(ptr noundef nonnull %15) #26
  br label %_ZNSt6vectorIN2cv3MatESaIS1_EED2Ev.exit

_ZNSt6vectorIN2cv3MatESaIS1_EED2Ev.exit:          ; preds = %_ZSt8_DestroyIPN2cv3MatES1_EvT_S3_RSaIT0_E.exit.i, %16
  call void @llvm.lifetime.end.p0(i64 24, ptr nonnull %4) #25
  ret i1 %9

17:                                               ; preds = %3
  %18 = landingpad { ptr, i32 }
          cleanup
  call void @_ZNSt6vectorIN2cv3MatESaIS1_EED2Ev(ptr noundef nonnull align 8 dereferenceable(24) %4) #25
  call void @llvm.lifetime.end.p0(i64 24, ptr nonnull %4) #25
  resume { ptr, i32 } %18
}